target datalayout = "e-m:e-p270:32:32-p271:32:32-p272:64:64-i64:64-i128:128-f80:128-n8:16:32:64-S128"
target triple = "x86_64-pc-linux-gnu"

; Function Attrs: inlinehint nounwind uwtable
define internal void @selectionsort3(ptr noundef %0, ptr noundef %1, i32 noundef %2) #5 {
  %4 = alloca ptr, align 8
  %5 = alloca ptr, align 8
  %6 = alloca i32, align 4
  %7 = alloca float, align 4
  %8 = alloca i32, align 4
  %9 = alloca i32, align 4
  %10 = alloca i32, align 4
  %11 = alloca i32, align 4
  store ptr %0, ptr %4, align 8, !tbaa !24
  store ptr %1, ptr %5, align 8, !tbaa !3
  store i32 %2, ptr %6, align 4, !tbaa !8
  call void @llvm.lifetime.start.p0(i64 4, ptr %7) #8
  call void @llvm.lifetime.start.p0(i64 4, ptr %8) #8
  call void @llvm.lifetime.start.p0(i64 4, ptr %9) #8
  call void @llvm.lifetime.start.p0(i64 4, ptr %10) #8
  call void @llvm.lifetime.start.p0(i64 4, ptr %11) #8
  store i32 0, ptr %9, align 4, !tbaa !8
  br label %12

12:                                               ; preds = %82, %3
  %13 = load i32, ptr %9, align 4, !tbaa !8
  %14 = load i32, ptr %6, align 4, !tbaa !8
  %15 = sub nsw i32 %14, 1
  %16 = icmp slt i32 %13, %15
  br i1 %16, label %17, label %85

17:                                               ; preds = %12
  %18 = load i32, ptr %9, align 4, !tbaa !8
  store i32 %18, ptr %11, align 4, !tbaa !8
  %19 = load i32, ptr %9, align 4, !tbaa !8
  %20 = add nsw i32 %19, 1
  store i32 %20, ptr %10, align 4, !tbaa !8
  br label %21

21:                                               ; preds = %40, %17
  %22 = load i32, ptr %10, align 4, !tbaa !8
  %23 = load i32, ptr %6, align 4, !tbaa !8
  %24 = icmp slt i32 %22, %23
  br i1 %24, label %25, label %43

25:                                               ; preds = %21
  %26 = load ptr, ptr %4, align 8, !tbaa !24
  %27 = load i32, ptr %10, align 4, !tbaa !8
  %28 = sext i32 %27 to i64
  %29 = getelementptr inbounds float, ptr %26, i64 %28
  %30 = load float, ptr %29, align 4, !tbaa !26
  %31 = load ptr, ptr %4, align 8, !tbaa !24
  %32 = load i32, ptr %11, align 4, !tbaa !8
  %33 = sext i32 %32 to i64
  %34 = getelementptr inbounds float, ptr %31, i64 %33
  %35 = load float, ptr %34, align 4, !tbaa !26
  %36 = fcmp olt float %30, %35
  br i1 %36, label %37, label %39

37:                                               ; preds = %25
  %38 = load i32, ptr %10, align 4, !tbaa !8
  store i32 %38, ptr %11, align 4, !tbaa !8
  br label %39

39:                                               ; preds = %37, %25
  br label %40

40:                                               ; preds = %39
  %41 = load i32, ptr %10, align 4, !tbaa !8
  %42 = add nsw i32 %41, 1
  store i32 %42, ptr %10, align 4, !tbaa !8
  br label %21, !llvm.loop !40

43:                                               ; preds = %21
  %44 = load ptr, ptr %4, align 8, !tbaa !24
  %45 = load i32, ptr %9, align 4, !tbaa !8
  %46 = sext i32 %45 to i64
  %47 = getelementptr inbounds float, ptr %44, i64 %46
  %48 = load float, ptr %47, align 4, !tbaa !26
  store float %48, ptr %7, align 4, !tbaa !26
  %49 = load ptr, ptr %4, align 8, !tbaa !24
  %50 = load i32, ptr %11, align 4, !tbaa !8
  %51 = sext i32 %50 to i64
  %52 = getelementptr inbounds float, ptr %49, i64 %51
  %53 = load float, ptr %52, align 4, !tbaa !26
  %54 = load ptr, ptr %4, align 8, !tbaa !24
  %55 = load i32, ptr %9, align 4, !tbaa !8
  %56 = sext i32 %55 to i64
  %57 = getelementptr inbounds float, ptr %54, i64 %56
  store float %53, ptr %57, align 4, !tbaa !26
  %58 = load float, ptr %7, align 4, !tbaa !26
  %59 = load ptr, ptr %4, align 8, !tbaa !24
  %60 = load i32, ptr %11, align 4, !tbaa !8
  %61 = sext i32 %60 to i64
  %62 = getelementptr inbounds float, ptr %59, i64 %61
  store float %58, ptr %62, align 4, !tbaa !26
  %63 = load ptr, ptr %5, align 8, !tbaa !3
  %64 = load i32, ptr %9, align 4, !tbaa !8
  %65 = sext i32 %64 to i64
  %66 = getelementptr inbounds i32, ptr %63, i64 %65
  %67 = load i32, ptr %66, align 4, !tbaa !8
  store i32 %67, ptr %8, align 4, !tbaa !8
  %68 = load ptr, ptr %5, align 8, !tbaa !3
  %69 = load i32, ptr %11, align 4, !tbaa !8
  %70 = sext i32 %69 to i64
  %71 = getelementptr inbounds i32, ptr %68, i64 %70
  %72 = load i32, ptr %71, align 4, !tbaa !8
  %73 = load ptr, ptr %5, align 8, !tbaa !3
  %74 = load i32, ptr %9, align 4, !tbaa !8
  %75 = sext i32 %74 to i64
  %76 = getelementptr inbounds i32, ptr %73, i64 %75
  store i32 %72, ptr %76, align 4, !tbaa !8
  %77 = load i32, ptr %8, align 4, !tbaa !8
  %78 = load ptr, ptr %5, align 8, !tbaa !3
  %79 = load i32, ptr %11, align 4, !tbaa !8
  %80 = sext i32 %79 to i64
  %81 = getelementptr inbounds i32, ptr %78, i64 %80
  store i32 %77, ptr %81, align 4, !tbaa !8
  br label %82

82:                                               ; preds = %43
  %83 = load i32, ptr %9, align 4, !tbaa !8
  %84 = add nsw i32 %83, 1
  store i32 %84, ptr %9, align 4, !tbaa !8
  br label %12, !llvm.loop !41

85:                                               ; preds = %12
  call void @llvm.lifetime.end.p0(i64 4, ptr %11) #8
  call void @llvm.lifetime.end.p0(i64 4, ptr %10) #8
  call void @llvm.lifetime.end.p0(i64 4, ptr %9) #8
  call void @llvm.lifetime.end.p0(i64 4, ptr %8) #8
  call void @llvm.lifetime.end.p0(i64 4, ptr %7) #8
  ret void
}

; Function Attrs: nounwind uwtable
define internal void @sort_rec3(ptr noundef %0, ptr noundef %1, i32 noundef %2) #0 {
  %4 = alloca ptr, align 8
  %5 = alloca ptr, align 8
  %6 = alloca i32, align 4
  %7 = alloca float, align 4
  %8 = alloca float, align 4
  %9 = alloca i32, align 4
  %10 = alloca i32, align 4
  %11 = alloca i32, align 4
  store ptr %0, ptr %4, align 8, !tbaa !24
  store ptr %1, ptr %5, align 8, !tbaa !3
  store i32 %2, ptr %6, align 4, !tbaa !8
  %12 = load i32, ptr %6, align 4, !tbaa !8
  %13 = icmp sle i32 %12, 15
  br i1 %13, label %14, label %18

14:                                               ; preds = %3
  %15 = load ptr, ptr %4, align 8, !tbaa !24
  %16 = load ptr, ptr %5, align 8, !tbaa !3
  %17 = load i32, ptr %6, align 4, !tbaa !8
  call void @selectionsort3(ptr noundef %15, ptr noundef %16, i32 noundef %17)
  br label %109

18:                                               ; preds = %3
  call void @llvm.lifetime.start.p0(i64 4, ptr %7) #8
  %19 = load ptr, ptr %4, align 8, !tbaa !24
  %20 = load i32, ptr %6, align 4, !tbaa !8
  %21 = sdiv i32 %20, 2
  %22 = sext i32 %21 to i64
  %23 = getelementptr inbounds float, ptr %19, i64 %22
  %24 = load float, ptr %23, align 4, !tbaa !26
  store float %24, ptr %7, align 4, !tbaa !26
  call void @llvm.lifetime.start.p0(i64 4, ptr %8) #8
  call void @llvm.lifetime.start.p0(i64 4, ptr %9) #8
  call void @llvm.lifetime.start.p0(i64 4, ptr %10) #8
  store i32 -1, ptr %10, align 4, !tbaa !8
  call void @llvm.lifetime.start.p0(i64 4, ptr %11) #8
  %25 = load i32, ptr %6, align 4, !tbaa !8
  store i32 %25, ptr %11, align 4, !tbaa !8
  br label %26

26:                                               ; preds = %55, %18
  br label %27

27:                                               ; preds = %30, %26
  %28 = load i32, ptr %10, align 4, !tbaa !8
  %29 = add nsw i32 %28, 1
  store i32 %29, ptr %10, align 4, !tbaa !8
  br label %30

30:                                               ; preds = %27
  %31 = load ptr, ptr %4, align 8, !tbaa !24
  %32 = load i32, ptr %10, align 4, !tbaa !8
  %33 = sext i32 %32 to i64
  %34 = getelementptr inbounds float, ptr %31, i64 %33
  %35 = load float, ptr %34, align 4, !tbaa !26
  %36 = load float, ptr %7, align 4, !tbaa !26
  %37 = fcmp olt float %35, %36
  br i1 %37, label %27, label %38, !llvm.loop !28

38:                                               ; preds = %30
  br label %39

39:                                               ; preds = %42, %38
  %40 = load i32, ptr %11, align 4, !tbaa !8
  %41 = add nsw i32 %40, -1
  store i32 %41, ptr %11, align 4, !tbaa !8
  br label %42

42:                                               ; preds = %39
  %43 = load float, ptr %7, align 4, !tbaa !26
  %44 = load ptr, ptr %4, align 8, !tbaa !24
  %45 = load i32, ptr %11, align 4, !tbaa !8
  %46 = sext i32 %45 to i64
  %47 = getelementptr inbounds float, ptr %44, i64 %46
  %48 = load float, ptr %47, align 4, !tbaa !26
  %49 = fcmp olt float %43, %48
  br i1 %49, label %39, label %50, !llvm.loop !29

50:                                               ; preds = %42
  %51 = load i32, ptr %10, align 4, !tbaa !8
  %52 = load i32, ptr %11, align 4, !tbaa !8
  %53 = icmp sge i32 %51, %52
  br i1 %53, label %54, label %55

54:                                               ; preds = %50
  br label %94

55:                                               ; preds = %50
  %56 = load ptr, ptr %4, align 8, !tbaa !24
  %57 = load i32, ptr %10, align 4, !tbaa !8
  %58 = sext i32 %57 to i64
  %59 = getelementptr inbounds float, ptr %56, i64 %58
  %60 = load float, ptr %59, align 4, !tbaa !26
  store float %60, ptr %8, align 4, !tbaa !26
  %61 = load ptr, ptr %4, align 8, !tbaa !24
  %62 = load i32, ptr %11, align 4, !tbaa !8
  %63 = sext i32 %62 to i64
  %64 = getelementptr inbounds float, ptr %61, i64 %63
  %65 = load float, ptr %64, align 4, !tbaa !26
  %66 = load ptr, ptr %4, align 8, !tbaa !24
  %67 = load i32, ptr %10, align 4, !tbaa !8
  %68 = sext i32 %67 to i64
  %69 = getelementptr inbounds float, ptr %66, i64 %68
  store float %65, ptr %69, align 4, !tbaa !26
  %70 = load float, ptr %8, align 4, !tbaa !26
  %71 = load ptr, ptr %4, align 8, !tbaa !24
  %72 = load i32, ptr %11, align 4, !tbaa !8
  %73 = sext i32 %72 to i64
  %74 = getelementptr inbounds float, ptr %71, i64 %73
  store float %70, ptr %74, align 4, !tbaa !26
  %75 = load ptr, ptr %5, align 8, !tbaa !3
  %76 = load i32, ptr %10, align 4, !tbaa !8
  %77 = sext i32 %76 to i64
  %78 = getelementptr inbounds i32, ptr %75, i64 %77
  %79 = load i32, ptr %78, align 4, !tbaa !8
  store i32 %79, ptr %9, align 4, !tbaa !8
  %80 = load ptr, ptr %5, align 8, !tbaa !3
  %81 = load i32, ptr %11, align 4, !tbaa !8
  %82 = sext i32 %81 to i64
  %83 = getelementptr inbounds i32, ptr %80, i64 %82
  %84 = load i32, ptr %83, align 4, !tbaa !8
  %85 = load ptr, ptr %5, align 8, !tbaa !3
  %86 = load i32, ptr %10, align 4, !tbaa !8
  %87 = sext i32 %86 to i64
  %88 = getelementptr inbounds i32, ptr %85, i64 %87
  store i32 %84, ptr %88, align 4, !tbaa !8
  %89 = load i32, ptr %9, align 4, !tbaa !8
  %90 = load ptr, ptr %5, align 8, !tbaa !3
  %91 = load i32, ptr %11, align 4, !tbaa !8
  %92 = sext i32 %91 to i64
  %93 = getelementptr inbounds i32, ptr %90, i64 %92
  store i32 %89, ptr %93, align 4, !tbaa !8
  br label %26

94:                                               ; preds = %54
  %95 = load ptr, ptr %4, align 8, !tbaa !24
  %96 = load ptr, ptr %5, align 8, !tbaa !3
  %97 = load i32, ptr %10, align 4, !tbaa !8
  call void @sort_rec3(ptr noundef %95, ptr noundef %96, i32 noundef %97)
  %98 = load ptr, ptr %4, align 8, !tbaa !24
  %99 = load i32, ptr %10, align 4, !tbaa !8
  %100 = sext i32 %99 to i64
  %101 = getelementptr inbounds float, ptr %98, i64 %100
  %102 = load ptr, ptr %5, align 8, !tbaa !3
  %103 = load i32, ptr %10, align 4, !tbaa !8
  %104 = sext i32 %103 to i64
  %105 = getelementptr inbounds i32, ptr %102, i64 %104
  %106 = load i32, ptr %6, align 4, !tbaa !8
  %107 = load i32, ptr %10, align 4, !tbaa !8
  %108 = sub nsw i32 %106, %107
  call void @sort_rec3(ptr noundef %101, ptr noundef %105, i32 noundef %108)
  call void @llvm.lifetime.end.p0(i64 4, ptr %11) #8
  call void @llvm.lifetime.end.p0(i64 4, ptr %10) #8
  call void @llvm.lifetime.end.p0(i64 4, ptr %9) #8
  call void @llvm.lifetime.end.p0(i64 4, ptr %8) #8
  call void @llvm.lifetime.end.p0(i64 4, ptr %7) #8
  br label %109

109:                                              ; preds = %94, %14
  ret void
}