; Function Attrs: nofree nosync nounwind memory(argmem: readwrite) uwtable
define internal fastcc void @sort_rec3(ptr noundef captures(none) %0, ptr noundef captures(none) %1, i32 noundef %2) unnamed_addr #1 {
  %4 = icmp slt i32 %2, 16
  br i1 %4, label %tailrecurse._crit_edge, label %.lr.ph

tailrecurse._crit_edge:                           ; preds = %tailrecurse, %3
  %.tr.lcssa = phi ptr [ %0, %3 ], [ %34, %tailrecurse ]
  %.tr51.lcssa = phi ptr [ %1, %3 ], [ %49, %tailrecurse ]
  %.tr52.lcssa = phi i32 [ %2, %3 ], [ %50, %tailrecurse ]
  %5 = icmp sgt i32 %.tr52.lcssa, 1
  br i1 %5, label %.lr.ph36.preheader.i, label %selectionsort3.exit

.lr.ph36.preheader.i:                             ; preds = %tailrecurse._crit_edge
  %6 = add nsw i32 %.tr52.lcssa, -1
  %wide.trip.count44.i = zext nneg i32 %6 to i64
  %wide.trip.count.i = zext nneg i32 %.tr52.lcssa to i64
  br label %.lr.ph.preheader.i

.lr.ph.preheader.i:                               ; preds = %._crit_edge.i, %.lr.ph36.preheader.i
  %indvars.iv41.i = phi i64 [ 0, %.lr.ph36.preheader.i ], [ %indvars.iv.next42.i, %._crit_edge.i ]
  %indvars.iv.i = phi i64 [ 1, %.lr.ph36.preheader.i ], [ %indvars.iv.next.i, %._crit_edge.i ]
  %7 = trunc nuw nsw i64 %indvars.iv41.i to i32
  br label %.lr.ph.i

.lr.ph.i:                                         ; preds = %.lr.ph.i, %.lr.ph.preheader.i
  %indvars.iv38.i = phi i64 [ %indvars.iv.i, %.lr.ph.preheader.i ], [ %indvars.iv.next39.i, %.lr.ph.i ]
  %.033.i = phi i32 [ %7, %.lr.ph.preheader.i ], [ %.1.i, %.lr.ph.i ]
  %8 = getelementptr inbounds nuw float, ptr %.tr.lcssa, i64 %indvars.iv38.i
  %9 = load float, ptr %8, align 4, !tbaa !27
  %10 = sext i32 %.033.i to i64
  %11 = getelementptr inbounds float, ptr %.tr.lcssa, i64 %10
  %12 = load float, ptr %11, align 4, !tbaa !27
  %13 = fcmp olt float %9, %12
  %14 = trunc nuw nsw i64 %indvars.iv38.i to i32
  %.1.i = select i1 %13, i32 %14, i32 %.033.i
  %indvars.iv.next39.i = add nuw nsw i64 %indvars.iv38.i, 1
  %exitcond.not.i = icmp eq i64 %indvars.iv.next39.i, %wide.trip.count.i
  br i1 %exitcond.not.i, label %._crit_edge.i, label %.lr.ph.i, !llvm.loop !29

._crit_edge.i:                                    ; preds = %.lr.ph.i
  %indvars.iv.next42.i = add nuw nsw i64 %indvars.iv41.i, 1
  %15 = getelementptr inbounds nuw float, ptr %.tr.lcssa, i64 %indvars.iv41.i
  %16 = load float, ptr %15, align 4, !tbaa !27
  %17 = sext i32 %.1.i to i64
  %18 = getelementptr inbounds float, ptr %.tr.lcssa, i64 %17
  %19 = load float, ptr %18, align 4, !tbaa !27
  store float %19, ptr %15, align 4, !tbaa !27
  store float %16, ptr %18, align 4, !tbaa !27
  %20 = getelementptr inbounds nuw i32, ptr %.tr51.lcssa, i64 %indvars.iv41.i
  %21 = load i32, ptr %20, align 4, !tbaa !5
  %22 = getelementptr inbounds i32, ptr %.tr51.lcssa, i64 %17
  %23 = load i32, ptr %22, align 4, !tbaa !5
  store i32 %23, ptr %20, align 4, !tbaa !5
  store i32 %21, ptr %22, align 4, !tbaa !5
  %indvars.iv.next.i = add nuw nsw i64 %indvars.iv.i, 1
  %exitcond45.not.i = icmp eq i64 %indvars.iv.next42.i, %wide.trip.count44.i
  br i1 %exitcond45.not.i, label %selectionsort3.exit, label %.lr.ph.preheader.i, !llvm.loop !30

.lr.ph:                                           ; preds = %3, %tailrecurse
  %.tr5264 = phi i32 [ %50, %tailrecurse ], [ %2, %3 ]
  %.tr5163 = phi ptr [ %49, %tailrecurse ], [ %1, %3 ]
  %.tr62 = phi ptr [ %34, %tailrecurse ], [ %0, %3 ]
  %24 = lshr i32 %.tr5264, 1
  %25 = zext nneg i32 %24 to i64
  %26 = getelementptr inbounds nuw float, ptr %.tr62, i64 %25
  %27 = load float, ptr %26, align 4, !tbaa !27
  br label %28

28:                                               ; preds = %41, %.lr.ph
  %.043 = phi i64 [ -1, %.lr.ph ], [ %indvars.iv.next, %41 ]
  %.0 = phi i32 [ %.tr5264, %.lr.ph ], [ %43, %41 ]
  %sext = shl i64 %.043, 32
  %29 = ashr exact i64 %sext, 32
  br label %30

30:                                               ; preds = %30, %28
  %indvars.iv = phi i64 [ %indvars.iv.next, %30 ], [ %29, %28 ]
  %indvars.iv.next = add nsw i64 %indvars.iv, 1
  %31 = getelementptr inbounds float, ptr %.tr62, i64 %indvars.iv.next
  %32 = load float, ptr %31, align 4, !tbaa !27
  %33 = fcmp olt float %32, %27
  br i1 %33, label %30, label %.preheader, !llvm.loop !31

.preheader:                                       ; preds = %30
  %34 = getelementptr inbounds float, ptr %.tr62, i64 %indvars.iv.next
  %35 = sext i32 %.0 to i64
  br label %36

36:                                               ; preds = %.preheader, %36
  %indvars.iv76 = phi i64 [ %35, %.preheader ], [ %indvars.iv.next77, %36 ]
  %indvars.iv.next77 = add nsw i64 %indvars.iv76, -1
  %37 = getelementptr inbounds float, ptr %.tr62, i64 %indvars.iv.next77
  %38 = load float, ptr %37, align 4, !tbaa !27
  %39 = fcmp olt float %27, %38
  br i1 %39, label %36, label %40, !llvm.loop !32

40:                                               ; preds = %36
  %.not = icmp slt i64 %indvars.iv.next, %indvars.iv.next77
  br i1 %.not, label %41, label %tailrecurse

41:                                               ; preds = %40
  %42 = getelementptr inbounds float, ptr %.tr62, i64 %indvars.iv.next77
  %43 = trunc nsw i64 %indvars.iv.next77 to i32
  store float %38, ptr %34, align 4, !tbaa !27
  store float %32, ptr %42, align 4, !tbaa !27
  %44 = getelementptr inbounds i32, ptr %.tr5163, i64 %indvars.iv.next
  %45 = load i32, ptr %44, align 4, !tbaa !5
  %46 = getelementptr inbounds i32, ptr %.tr5163, i64 %indvars.iv.next77
  %47 = load i32, ptr %46, align 4, !tbaa !5
  store i32 %47, ptr %44, align 4, !tbaa !5
  store i32 %45, ptr %46, align 4, !tbaa !5
  br label %28

tailrecurse:                                      ; preds = %40
  %48 = trunc nsw i64 %indvars.iv.next to i32
  tail call fastcc void @sort_rec3(ptr noundef nonnull %.tr62, ptr noundef %.tr5163, i32 noundef %48)
  %49 = getelementptr inbounds i32, ptr %.tr5163, i64 %indvars.iv.next
  %50 = sub nsw i32 %.tr5264, %48
  %51 = icmp slt i32 %50, 16
  br i1 %51, label %tailrecurse._crit_edge, label %.lr.ph

selectionsort3.exit:                              ; preds = %._crit_edge.i, %tailrecurse._crit_edge
  ret void
}